target datalayout = "e-m:e-p270:32:32-p271:32:32-p272:64:64-i64:64-i128:128-f80:128-n8:16:32:64-S128"
target triple = "x86_64-unknown-linux-gnu"

%struct.CPUArchState = type { [32 x i64], [32 x i64], [512 x i64], i64, i64, i64, i64, i64, i8, i64, i64, i64, [32 x i64], i64, %struct.float_status, i64, i64, i64, i64, i64, i64, i32, i32, i32, i32, i32, i64, i64, i32, i64, i64, ptr, ptr, i8, i64, i64, [8 x i8] }
%struct.float_status = type { i16, i8, i8, i8, i8, i8, i8, i8, i8, i8, i8, i8 }

; Function Attrs: nounwind sspstrong uwtable
define dso_local void @helper_csrw(ptr noundef %env, i32 noundef %csr, i64 noundef %src) #1 {
entry:
  %env.addr = alloca ptr, align 8
  %csr.addr = alloca i32, align 4
  %src.addr = alloca i64, align 8
  %mask = alloca i64, align 8
  %ret = alloca i32, align 4
  store ptr %env, ptr %env.addr, align 8
  store i32 %csr, ptr %csr.addr, align 4
  store i64 %src, ptr %src.addr, align 8
  %0 = load ptr, ptr %env.addr, align 8
  %xl = getelementptr inbounds %struct.CPUArchState, ptr %0, i32 0, i32 25
  %1 = load i32, ptr %xl, align 16
  %cmp = icmp eq i32 %1, 1
  %cond = select i1 %cmp, i64 4294967295, i64 -1
  store i64 %cond, ptr %mask, align 8
  %2 = load ptr, ptr %env.addr, align 8
  %3 = load i32, ptr %csr.addr, align 4
  %4 = load i64, ptr %src.addr, align 8
  %5 = load i64, ptr %mask, align 8
  %call = call i32 @riscv_csrrw(ptr noundef %2, i32 noundef %3, ptr noundef null, i64 noundef %4, i64 noundef %5)
  store i32 %call, ptr %ret, align 4
  %6 = load i32, ptr %ret, align 4
  %cmp1 = icmp ne i32 %6, -1
  br i1 %cmp1, label %if.then, label %if.end

if.then:                                          ; preds = %entry
  %7 = load ptr, ptr %env.addr, align 8
  %8 = load i32, ptr %ret, align 4
  %9 = call ptr @llvm.returnaddress(i32 0)
  %10 = ptrtoint ptr %9 to i64
  call void @riscv_raise_exception(ptr noundef %7, i32 noundef %8, i64 noundef %10) #6
  unreachable

if.end:                                           ; preds = %entry
  ret void
}