; Function Attrs: nounwind sspstrong uwtable
define dso_local void @helper_csrw(ptr noundef %env, i32 noundef %csr, i64 noundef %src) local_unnamed_addr #2 {
entry:
  %xl = getelementptr inbounds nuw i8, ptr %env, i64 5024
  %0 = load i32, ptr %xl, align 16
  %cmp = icmp eq i32 %0, 1
  %cond = select i1 %cmp, i64 4294967295, i64 -1
  %call = tail call i32 @riscv_csrrw(ptr noundef %env, i32 noundef %csr, ptr noundef null, i64 noundef %src, i64 noundef %cond) #9
  %cmp1.not = icmp eq i32 %call, -1
  br i1 %cmp1.not, label %if.end, label %if.then

if.then:                                          ; preds = %entry
  %1 = tail call ptr @llvm.returnaddress(i32 0)
  %2 = ptrtoint ptr %1 to i64
  tail call void @riscv_raise_exception(ptr noundef nonnull %env, i32 noundef %call, i64 noundef %2) #8
  unreachable

if.end:                                           ; preds = %entry
  ret void
}